; Function Attrs: mustprogress nofree norecurse nosync nounwind willreturn memory(none) uwtable
define hidden range(i32 0, 2) i32 @SDL_isalnum_REAL(i32 noundef %0) local_unnamed_addr #2 {
  %2 = and i32 %0, -33
  %3 = add i32 %2, -65
  %narrow.i = icmp ult i32 %3, 26
  %4 = add i32 %0, -48
  %5 = icmp ult i32 %4, 10
  %narrow = or i1 %5, %narrow.i
  %6 = zext i1 %narrow to i32
  ret i32 %6
}